target datalayout = "e-m:e-p270:32:32-p271:32:32-p272:64:64-i64:64-i128:128-f80:128-n8:16:32:64-S128"
target triple = "x86_64-pc-linux-gnu"

%struct.CVodeMemRec = type { double, ptr, ptr, i32, i32, i32, double, double, ptr, i32, ptr, ptr, i32, ptr, i32, i32, double, double, ptr, i32, i32, i32, ptr, ptr, ptr, i32, i32, ptr, ptr, ptr, i32, double, i32, i32, double, ptr, ptr, i32, ptr, ptr, i32, i32, i32, double, ptr, ptr, [13 x ptr], ptr, ptr, ptr, ptr, ptr, [13 x ptr], ptr, ptr, ptr, ptr, [13 x ptr], ptr, ptr, ptr, ptr, ptr, i32, [13 x ptr], ptr, ptr, ptr, ptr, ptr, i32, double, i32, i32, i32, i32, i32, double, double, double, double, double, double, double, double, [14 x double], [6 x double], [13 x double], double, double, double, double, double, double, double, double, double, double, double, i32, ptr, i32, i64, i32, i32, i32, i32, i32, double, double, double, i64, i64, i64, i64, i64, i64, i64, i64, i64, ptr, i64, i64, ptr, i64, i64, i64, i64, i64, i64, i32, i64, i64, i64, i64, i64, i64, double, double, double, ptr, ptr, ptr, ptr, ptr, i32, i32, i64, double, double, double, i32, double, i32, i32, i32, i32, i32, i32, i32, i32, i32, i32, i32, i32, i32, i32, i32, i32, ptr, ptr, ptr, i32, [6 x [4 x double]], i32, i64, ptr, i32, ptr, ptr, double, double, double, ptr, ptr, ptr, double, double, i32, i32, i64, ptr, i32, i32, ptr, i32 }

@.str = private unnamed_addr constant [7 x i8] c"CVODES\00", align 1
@.str.6 = private unnamed_addr constant [26 x i8] c"cvode_mem = NULL illegal.\00", align 1
@.str.34 = private unnamed_addr constant [44 x i8] c"Forward sensitivity analysis not activated.\00", align 1
@.str.42 = private unnamed_addr constant [21 x i8] c"yQS0 = NULL illegal.\00", align 1
@.str.43 = private unnamed_addr constant [20 x i8] c"CVodeQuadSensReInit\00", align 1
@.str.44 = private unnamed_addr constant [69 x i8] c"Forward sensitivity analysis for quadrature variables not activated.\00", align 1

; Function Attrs: nounwind uwtable
define i32 @CVodeQuadSensReInit(ptr noundef %0, ptr noundef %1) #0 {
  %3 = alloca i32, align 4
  %4 = alloca ptr, align 8
  %5 = alloca ptr, align 8
  %6 = alloca ptr, align 8
  %7 = alloca i32, align 4
  %8 = alloca i32, align 4
  store ptr %0, ptr %4, align 8, !tbaa !101
  store ptr %1, ptr %5, align 8, !tbaa !104
  call void @llvm.lifetime.start.p0(i64 8, ptr %6) #8
  call void @llvm.lifetime.start.p0(i64 4, ptr %7) #8
  %9 = load ptr, ptr %4, align 8, !tbaa !101
  %10 = icmp eq ptr %9, null
  br i1 %10, label %11, label %12

11:                                               ; preds = %2
  call void (ptr, i32, ptr, ptr, ptr, ...) @cvProcessError(ptr noundef null, i32 noundef -21, ptr noundef @.str, ptr noundef @.str.43, ptr noundef @.str.6)
  store i32 -21, ptr %3, align 4
  store i32 1, ptr %8, align 4
  br label %65

12:                                               ; preds = %2
  %13 = load ptr, ptr %4, align 8, !tbaa !101
  store ptr %13, ptr %6, align 8, !tbaa !7
  %14 = load ptr, ptr %6, align 8, !tbaa !7
  %15 = getelementptr inbounds nuw %struct.CVodeMemRec, ptr %14, i32 0, i32 19
  %16 = load i32, ptr %15, align 8, !tbaa !58
  %17 = icmp ne i32 %16, 0
  br i1 %17, label %20, label %18

18:                                               ; preds = %12
  %19 = load ptr, ptr %6, align 8, !tbaa !7
  call void (ptr, i32, ptr, ptr, ptr, ...) @cvProcessError(ptr noundef %19, i32 noundef -22, ptr noundef @.str, ptr noundef @.str.43, ptr noundef @.str.34)
  store i32 -40, ptr %3, align 4
  store i32 1, ptr %8, align 4
  br label %65

20:                                               ; preds = %12
  %21 = load ptr, ptr %6, align 8, !tbaa !7
  %22 = getelementptr inbounds nuw %struct.CVodeMemRec, ptr %21, i32 0, i32 168
  %23 = load i32, ptr %22, align 4, !tbaa !97
  %24 = icmp eq i32 %23, 0
  br i1 %24, label %25, label %27

25:                                               ; preds = %20
  %26 = load ptr, ptr %6, align 8, !tbaa !7
  call void (ptr, i32, ptr, ptr, ptr, ...) @cvProcessError(ptr noundef %26, i32 noundef -50, ptr noundef @.str, ptr noundef @.str.43, ptr noundef @.str.44)
  store i32 -50, ptr %3, align 4
  store i32 1, ptr %8, align 4
  br label %65

27:                                               ; preds = %20
  %28 = load ptr, ptr %5, align 8, !tbaa !104
  %29 = icmp eq ptr %28, null
  br i1 %29, label %30, label %32

30:                                               ; preds = %27
  %31 = load ptr, ptr %6, align 8, !tbaa !7
  call void (ptr, i32, ptr, ptr, ptr, ...) @cvProcessError(ptr noundef %31, i32 noundef -22, ptr noundef @.str, ptr noundef @.str.43, ptr noundef @.str.42)
  store i32 -22, ptr %3, align 4
  store i32 1, ptr %8, align 4
  br label %65

32:                                               ; preds = %27
  store i32 0, ptr %7, align 4, !tbaa !3
  br label %33

33:                                               ; preds = %53, %32
  %34 = load i32, ptr %7, align 4, !tbaa !3
  %35 = load ptr, ptr %6, align 8, !tbaa !7
  %36 = getelementptr inbounds nuw %struct.CVodeMemRec, ptr %35, i32 0, i32 20
  %37 = load i32, ptr %36, align 4, !tbaa !184
  %38 = icmp slt i32 %34, %37
  br i1 %38, label %39, label %56

39:                                               ; preds = %33
  %40 = load ptr, ptr %5, align 8, !tbaa !104
  %41 = load i32, ptr %7, align 4, !tbaa !3
  %42 = sext i32 %41 to i64
  %43 = getelementptr inbounds ptr, ptr %40, i64 %42
  %44 = load ptr, ptr %43, align 8, !tbaa !103
  %45 = load ptr, ptr %6, align 8, !tbaa !7
  %46 = getelementptr inbounds nuw %struct.CVodeMemRec, ptr %45, i32 0, i32 64
  %47 = getelementptr inbounds [13 x ptr], ptr %46, i64 0, i64 0
  %48 = load ptr, ptr %47, align 8, !tbaa !104
  %49 = load i32, ptr %7, align 4, !tbaa !3
  %50 = sext i32 %49 to i64
  %51 = getelementptr inbounds ptr, ptr %48, i64 %50
  %52 = load ptr, ptr %51, align 8, !tbaa !103
  call void @N_VScale(double noundef 1.000000e+00, ptr noundef %44, ptr noundef %52)
  br label %53

53:                                               ; preds = %39
  %54 = load i32, ptr %7, align 4, !tbaa !3
  %55 = add nsw i32 %54, 1
  store i32 %55, ptr %7, align 4, !tbaa !3
  br label %33, !llvm.loop !229

56:                                               ; preds = %33
  %57 = load ptr, ptr %6, align 8, !tbaa !7
  %58 = getelementptr inbounds nuw %struct.CVodeMemRec, ptr %57, i32 0, i32 116
  store i64 0, ptr %58, align 8, !tbaa !217
  %59 = load ptr, ptr %6, align 8, !tbaa !7
  %60 = getelementptr inbounds nuw %struct.CVodeMemRec, ptr %59, i32 0, i32 117
  store i64 0, ptr %60, align 8, !tbaa !218
  %61 = load ptr, ptr %6, align 8, !tbaa !7
  %62 = getelementptr inbounds nuw %struct.CVodeMemRec, ptr %61, i32 0, i32 127
  store i64 0, ptr %62, align 8, !tbaa !219
  %63 = load ptr, ptr %6, align 8, !tbaa !7
  %64 = getelementptr inbounds nuw %struct.CVodeMemRec, ptr %63, i32 0, i32 37
  store i32 1, ptr %64, align 8, !tbaa !75
  store i32 0, ptr %3, align 4
  store i32 1, ptr %8, align 4
  br label %65

65:                                               ; preds = %56, %30, %25, %18, %11
  call void @llvm.lifetime.end.p0(i64 4, ptr %7) #8
  call void @llvm.lifetime.end.p0(i64 8, ptr %6) #8
  %66 = load i32, ptr %3, align 4
  ret i32 %66
}