; Function Attrs: nounwind uwtable
define range(i32 -50, 1) i32 @CVodeQuadSensReInit(ptr noundef captures(address_is_null) %0, ptr noundef readonly captures(address_is_null) %1) local_unnamed_addr #0 {
  %3 = icmp eq ptr %0, null
  br i1 %3, label %4, label %5

4:                                                ; preds = %2
  tail call void (ptr, i32, ptr, ptr, ptr, ...) @cvProcessError(ptr noundef null, i32 noundef -21, ptr noundef nonnull @.str, ptr noundef nonnull @.str.43, ptr noundef nonnull @.str.6)
  br label %33

5:                                                ; preds = %2
  %6 = getelementptr inbounds nuw i8, ptr %0, i64 136
  %7 = load i32, ptr %6, align 8, !tbaa !144
  %.not = icmp eq i32 %7, 0
  br i1 %.not, label %8, label %9

8:                                                ; preds = %5
  tail call void (ptr, i32, ptr, ptr, ptr, ...) @cvProcessError(ptr noundef nonnull %0, i32 noundef -22, ptr noundef nonnull @.str, ptr noundef nonnull @.str.43, ptr noundef nonnull @.str.34)
  br label %33

9:                                                ; preds = %5
  %10 = getelementptr inbounds nuw i8, ptr %0, i64 1820
  %11 = load i32, ptr %10, align 4, !tbaa !185
  %12 = icmp eq i32 %11, 0
  br i1 %12, label %13, label %14

13:                                               ; preds = %9
  tail call void (ptr, i32, ptr, ptr, ptr, ...) @cvProcessError(ptr noundef nonnull %0, i32 noundef -50, ptr noundef nonnull @.str, ptr noundef nonnull @.str.43, ptr noundef nonnull @.str.44)
  br label %33

14:                                               ; preds = %9
  %15 = icmp eq ptr %1, null
  br i1 %15, label %20, label %.preheader

.preheader:                                       ; preds = %14
  %16 = getelementptr inbounds nuw i8, ptr %0, i64 140
  %17 = load i32, ptr %16, align 4, !tbaa !133
  %18 = icmp sgt i32 %17, 0
  br i1 %18, label %.lr.ph, label %._crit_edge

.lr.ph:                                           ; preds = %.preheader
  %19 = getelementptr inbounds nuw i8, ptr %0, i64 752
  br label %21

20:                                               ; preds = %14
  tail call void (ptr, i32, ptr, ptr, ptr, ...) @cvProcessError(ptr noundef nonnull %0, i32 noundef -22, ptr noundef nonnull @.str, ptr noundef nonnull @.str.43, ptr noundef nonnull @.str.42)
  br label %33

21:                                               ; preds = %.lr.ph, %21
  %indvars.iv = phi i64 [ 0, %.lr.ph ], [ %indvars.iv.next, %21 ]
  %22 = getelementptr inbounds nuw ptr, ptr %1, i64 %indvars.iv
  %23 = load ptr, ptr %22, align 8, !tbaa !46
  %24 = load ptr, ptr %19, align 8, !tbaa !137
  %25 = getelementptr inbounds nuw ptr, ptr %24, i64 %indvars.iv
  %26 = load ptr, ptr %25, align 8, !tbaa !46
  tail call void @N_VScale(double noundef 1.000000e+00, ptr noundef %23, ptr noundef %26) #13
  %indvars.iv.next = add nuw nsw i64 %indvars.iv, 1
  %27 = load i32, ptr %16, align 4, !tbaa !133
  %28 = sext i32 %27 to i64
  %29 = icmp slt i64 %indvars.iv.next, %28
  br i1 %29, label %21, label %._crit_edge, !llvm.loop !188

._crit_edge:                                      ; preds = %21, %.preheader
  %30 = getelementptr inbounds nuw i8, ptr %0, i64 1472
  %31 = getelementptr inbounds nuw i8, ptr %0, i64 1560
  store i64 0, ptr %31, align 8, !tbaa !183
  %32 = getelementptr inbounds nuw i8, ptr %0, i64 256
  tail call void @llvm.memset.p0.i64(ptr noundef nonnull align 8 dereferenceable(16) %30, i8 0, i64 16, i1 false)
  store i32 1, ptr %32, align 8, !tbaa !184
  br label %33

33:                                               ; preds = %._crit_edge, %20, %13, %8, %4
  %.019 = phi i32 [ -21, %4 ], [ -50, %13 ], [ -22, %20 ], [ 0, %._crit_edge ], [ -40, %8 ]
  ret i32 %.019
}